; Function Attrs: mustprogress nofree norecurse nosync nounwind willreturn memory(readwrite, inaccessiblemem: write) uwtable
define internal noundef nonnull ptr @_ZN6evmone8advanced12_GLOBAL__N_12opIXadL_ZNS0_5instr4implILNS_6OpcodeE157EXadL_ZNS_5instr4core4swapILi14EEEvNS_8StackTopEEEEEvRNS0_22AdvancedExecutionStateEEEEEPKNS0_11InstructionESE_SB_(ptr noundef readnone captures(ret: address, provenance) %0, ptr noundef nonnull align 8 captures(none) dereferenceable(564) %1) #5 {
  %3 = getelementptr inbounds nuw i8, ptr %1, i64 552
  %.sroa.0.0.copyload.i = load ptr, ptr %3, align 8, !tbaa !57
  %4 = getelementptr inbounds i8, ptr %.sroa.0.0.copyload.i, i64 -480
  %5 = getelementptr inbounds i8, ptr %.sroa.0.0.copyload.i, i64 -32
  %6 = load i64, ptr %5, align 8, !tbaa !59
  %7 = getelementptr inbounds i8, ptr %.sroa.0.0.copyload.i, i64 -24
  %8 = load i64, ptr %7, align 8, !tbaa !59
  %9 = getelementptr inbounds i8, ptr %.sroa.0.0.copyload.i, i64 -16
  %10 = load i64, ptr %9, align 8, !tbaa !59
  %11 = getelementptr inbounds i8, ptr %.sroa.0.0.copyload.i, i64 -8
  %12 = load i64, ptr %11, align 8, !tbaa !59
  tail call void @llvm.memcpy.p0.p0.i64(ptr noundef nonnull align 8 dereferenceable(32) %5, ptr noundef nonnull align 8 dereferenceable(32) %4, i64 32, i1 false), !tbaa.struct !79
  store i64 %6, ptr %4, align 8, !tbaa !59
  %13 = getelementptr inbounds i8, ptr %.sroa.0.0.copyload.i, i64 -472
  store i64 %8, ptr %13, align 8, !tbaa !59
  %14 = getelementptr inbounds i8, ptr %.sroa.0.0.copyload.i, i64 -464
  store i64 %10, ptr %14, align 8, !tbaa !59
  %15 = getelementptr inbounds i8, ptr %.sroa.0.0.copyload.i, i64 -456
  store i64 %12, ptr %15, align 8, !tbaa !59
  %16 = load ptr, ptr %3, align 8, !tbaa !67
  call void @llvm.assume(i1 true) [ "align"(ptr %16, i64 32) ]
  %17 = ptrtoint ptr %16 to i64
  store i64 %17, ptr %3, align 8, !tbaa !57
  %18 = getelementptr inbounds nuw i8, ptr %0, i64 16
  ret ptr %18
}